target datalayout = "e-m:e-p270:32:32-p271:32:32-p272:64:64-i64:64-i128:128-f80:128-n8:16:32:64-S128"
target triple = "x86_64-pc-linux-gnu"

%struct._packet_info = type { ptr, ptr, i32, i32, %struct.nstime_t, %struct.nstime_t, %struct.nstime_t, i8, ptr, ptr, ptr, ptr, %struct._address, %struct._address, %struct._address, %struct._address, %struct._address, %struct._address, i32, ptr, i8, [3 x i8], %struct.anon, i32, i32, i32, i32, ptr, i8, ptr, ptr, i16, i16, i32, i32, i16, i32, i32, ptr, ptr, ptr, i8, i8, i16, i16, i16, i32, i16, i16, ptr, ptr, ptr, ptr, ptr, i32, i32 }
%struct.nstime_t = type { i64, i32 }
%struct._address = type { i32, i32, ptr, ptr }
%struct.anon = type { i8, [3 x i8] }

@hf_extrememesh_version = internal global i32 0, align 4
@hf_extrememesh_nextproto = internal global i32 0, align 4
@hf_extrememesh_l2upd_proxy_owner = internal global i32 0, align 4
@hf_extrememesh_l2upd_ballast = internal global i32 0, align 4
@ett_extrememesh = internal global i32 0, align 4
@proto_extrememesh = internal global i32 0, align 4
@.str.303 = private unnamed_addr constant [23 x i8] c"Extreme Mesh L2 Update\00", align 1
@proto_extrememesh_l2upd = internal global i32 0, align 4
@eth_withoutfcs_handle = internal global ptr null, align 8
@.str.394 = private unnamed_addr constant [4 x i8] c"MCX\00", align 1
@.str.395 = private unnamed_addr constant [31 x i8] c"Encapsulated Ethernet, no addr\00", align 1

; Function Attrs: alwaysinline nounwind
define internal ptr @memcpy.inline(ptr noalias %0, ptr noalias %1, i64 %2) #4 {
  %4 = alloca ptr, align 8
  %5 = alloca ptr, align 8
  %6 = alloca i64, align 8
  store ptr %0, ptr %4, align 8
  store ptr %1, ptr %5, align 8
  store i64 %2, ptr %6, align 8
  %7 = load ptr, ptr %4, align 8
  %8 = load ptr, ptr %5, align 8
  %9 = load i64, ptr %6, align 8
  %10 = load ptr, ptr %4, align 8
  %11 = call i64 @llvm.objectsize.i64.p0(ptr %10, i1 false, i1 true, i1 true)
  %12 = call ptr @__memcpy_chk(ptr noundef %7, ptr noundef %8, i64 noundef %9, i64 noundef %11) #7
  ret ptr %12
}

; Function Attrs: null_pointer_is_valid sspstrong uwtable
define internal i32 @dissect_extrememesh_l2upd(ptr noundef %0, ptr noundef %1, ptr noundef %2) #0 {
  %4 = alloca ptr, align 8
  %5 = alloca ptr, align 8
  %6 = alloca ptr, align 8
  %7 = alloca i32, align 4
  store ptr %0, ptr %4, align 8
  store ptr %1, ptr %5, align 8
  store ptr %2, ptr %6, align 8
  call void @llvm.lifetime.start.p0(i64 4, ptr %7) #7
  store i32 0, ptr %7, align 4
  %8 = load ptr, ptr %5, align 8
  %9 = getelementptr inbounds nuw %struct._packet_info, ptr %8, i32 0, i32 1
  %10 = load ptr, ptr %9, align 8
  call void @col_set_str(ptr noundef %10, i32 noundef 25, ptr noundef @.str.303)
  %11 = load ptr, ptr %6, align 8
  %12 = load i32, ptr @proto_extrememesh_l2upd, align 4
  %13 = load ptr, ptr %4, align 8
  %14 = load i32, ptr %7, align 4
  %15 = call ptr @proto_tree_add_item(ptr noundef %11, i32 noundef %12, ptr noundef %13, i32 noundef %14, i32 noundef -1, i32 noundef 0)
  %16 = load ptr, ptr %6, align 8
  %17 = load i32, ptr @hf_extrememesh_l2upd_proxy_owner, align 4
  %18 = load ptr, ptr %4, align 8
  %19 = load i32, ptr %7, align 4
  %20 = call ptr @proto_tree_add_item(ptr noundef %16, i32 noundef %17, ptr noundef %18, i32 noundef %19, i32 noundef 6, i32 noundef 0)
  %21 = load i32, ptr %7, align 4
  %22 = add i32 %21, 6
  store i32 %22, ptr %7, align 4
  %23 = load ptr, ptr %6, align 8
  %24 = load i32, ptr @hf_extrememesh_l2upd_ballast, align 4
  %25 = load ptr, ptr %4, align 8
  %26 = load i32, ptr %7, align 4
  %27 = load ptr, ptr %4, align 8
  %28 = call i32 @tvb_captured_length(ptr noundef %27)
  %29 = sub i32 %28, 6
  %30 = call ptr @proto_tree_add_item(ptr noundef %23, i32 noundef %24, ptr noundef %25, i32 noundef %26, i32 noundef %29, i32 noundef 0)
  call void @llvm.lifetime.end.p0(i64 4, ptr %7) #7
  ret i32 -1
}

; Function Attrs: null_pointer_is_valid sspstrong uwtable
define internal i32 @dissect_extrememesh_eth_noaddr(ptr noundef %0, ptr noundef %1, ptr noundef %2) #0 {
  %4 = alloca ptr, align 8
  %5 = alloca ptr, align 8
  %6 = alloca ptr, align 8
  %7 = alloca ptr, align 8
  %8 = alloca ptr, align 8
  %9 = alloca i32, align 4
  %10 = alloca i32, align 4
  store ptr %0, ptr %4, align 8
  store ptr %1, ptr %5, align 8
  store ptr %2, ptr %6, align 8
  call void @llvm.lifetime.start.p0(i64 8, ptr %7) #7
  call void @llvm.lifetime.start.p0(i64 8, ptr %8) #7
  call void @llvm.lifetime.start.p0(i64 4, ptr %9) #7
  %11 = load ptr, ptr %5, align 8
  %12 = getelementptr inbounds nuw %struct._packet_info, ptr %11, i32 0, i32 16
  %13 = getelementptr inbounds nuw %struct._address, ptr %12, i32 0, i32 2
  %14 = load ptr, ptr %13, align 8
  %15 = icmp ne ptr %14, null
  br i1 %15, label %16, label %101

16:                                               ; preds = %3
  %17 = load ptr, ptr %5, align 8
  %18 = getelementptr inbounds nuw %struct._packet_info, ptr %17, i32 0, i32 17
  %19 = getelementptr inbounds nuw %struct._address, ptr %18, i32 0, i32 2
  %20 = load ptr, ptr %19, align 8
  %21 = icmp ne ptr %20, null
  br i1 %21, label %22, label %101

22:                                               ; preds = %16
  call void @llvm.lifetime.start.p0(i64 4, ptr %10) #7
  %23 = load ptr, ptr %4, align 8
  %24 = call i32 @tvb_captured_length(ptr noundef %23)
  store i32 %24, ptr %10, align 4
  %25 = load i32, ptr %10, align 4
  %26 = load ptr, ptr %5, align 8
  %27 = getelementptr inbounds nuw %struct._packet_info, ptr %26, i32 0, i32 16
  %28 = getelementptr inbounds nuw %struct._address, ptr %27, i32 0, i32 1
  %29 = load i32, ptr %28, align 4
  %30 = add i32 %25, %29
  %31 = load ptr, ptr %5, align 8
  %32 = getelementptr inbounds nuw %struct._packet_info, ptr %31, i32 0, i32 17
  %33 = getelementptr inbounds nuw %struct._address, ptr %32, i32 0, i32 1
  %34 = load i32, ptr %33, align 4
  %35 = add i32 %30, %34
  store i32 %35, ptr %9, align 4
  %36 = load ptr, ptr %5, align 8
  %37 = getelementptr inbounds nuw %struct._packet_info, ptr %36, i32 0, i32 51
  %38 = load ptr, ptr %37, align 8
  %39 = load i32, ptr %9, align 4
  %40 = sext i32 %39 to i64
  %41 = call noalias ptr @wmem_alloc(ptr noundef %38, i64 noundef %40) #8
  store ptr %41, ptr %8, align 8
  %42 = load ptr, ptr %8, align 8
  %43 = load ptr, ptr %5, align 8
  %44 = getelementptr inbounds nuw %struct._packet_info, ptr %43, i32 0, i32 17
  %45 = getelementptr inbounds nuw %struct._address, ptr %44, i32 0, i32 2
  %46 = load ptr, ptr %45, align 8
  %47 = load ptr, ptr %5, align 8
  %48 = getelementptr inbounds nuw %struct._packet_info, ptr %47, i32 0, i32 17
  %49 = getelementptr inbounds nuw %struct._address, ptr %48, i32 0, i32 1
  %50 = load i32, ptr %49, align 4
  %51 = sext i32 %50 to i64
  %52 = call ptr @memcpy.inline(ptr noundef %42, ptr noundef %46, i64 noundef %51) #7
  %53 = load ptr, ptr %8, align 8
  %54 = load ptr, ptr %5, align 8
  %55 = getelementptr inbounds nuw %struct._packet_info, ptr %54, i32 0, i32 17
  %56 = getelementptr inbounds nuw %struct._address, ptr %55, i32 0, i32 1
  %57 = load i32, ptr %56, align 4
  %58 = sext i32 %57 to i64
  %59 = getelementptr i8, ptr %53, i64 %58
  %60 = load ptr, ptr %5, align 8
  %61 = getelementptr inbounds nuw %struct._packet_info, ptr %60, i32 0, i32 16
  %62 = getelementptr inbounds nuw %struct._address, ptr %61, i32 0, i32 2
  %63 = load ptr, ptr %62, align 8
  %64 = load ptr, ptr %5, align 8
  %65 = getelementptr inbounds nuw %struct._packet_info, ptr %64, i32 0, i32 16
  %66 = getelementptr inbounds nuw %struct._address, ptr %65, i32 0, i32 1
  %67 = load i32, ptr %66, align 4
  %68 = sext i32 %67 to i64
  %69 = call ptr @memcpy.inline(ptr noundef %59, ptr noundef %63, i64 noundef %68) #7
  %70 = load ptr, ptr %4, align 8
  %71 = load ptr, ptr %8, align 8
  %72 = load ptr, ptr %5, align 8
  %73 = getelementptr inbounds nuw %struct._packet_info, ptr %72, i32 0, i32 16
  %74 = getelementptr inbounds nuw %struct._address, ptr %73, i32 0, i32 1
  %75 = load i32, ptr %74, align 4
  %76 = load ptr, ptr %5, align 8
  %77 = getelementptr inbounds nuw %struct._packet_info, ptr %76, i32 0, i32 17
  %78 = getelementptr inbounds nuw %struct._address, ptr %77, i32 0, i32 1
  %79 = load i32, ptr %78, align 4
  %80 = add i32 %75, %79
  %81 = load i32, ptr %10, align 4
  %82 = zext i32 %81 to i64
  %83 = call ptr @tvb_memcpy(ptr noundef %70, ptr noundef %71, i32 noundef %80, i64 noundef %82)
  %84 = load ptr, ptr %8, align 8
  %85 = load i32, ptr %9, align 4
  %86 = load i32, ptr %9, align 4
  %87 = call ptr @tvb_new_real_data(ptr noundef %84, i32 noundef %85, i32 noundef %86)
  store ptr %87, ptr %7, align 8
  %88 = load ptr, ptr %4, align 8
  %89 = load ptr, ptr %7, align 8
  call void @tvb_set_child_real_data_tvbuff(ptr noundef %88, ptr noundef %89)
  %90 = load ptr, ptr %5, align 8
  %91 = load ptr, ptr %7, align 8
  call void @add_new_data_source(ptr noundef %90, ptr noundef %91, ptr noundef @.str.395)
  %92 = load ptr, ptr @eth_withoutfcs_handle, align 8
  %93 = icmp ne ptr %92, null
  br i1 %93, label %94, label %100

94:                                               ; preds = %22
  %95 = load ptr, ptr @eth_withoutfcs_handle, align 8
  %96 = load ptr, ptr %7, align 8
  %97 = load ptr, ptr %5, align 8
  %98 = load ptr, ptr %6, align 8
  %99 = call i32 @call_dissector(ptr noundef %95, ptr noundef %96, ptr noundef %97, ptr noundef %98)
  br label %100

100:                                              ; preds = %94, %22
  call void @llvm.lifetime.end.p0(i64 4, ptr %10) #7
  br label %101

101:                                              ; preds = %100, %16, %3
  call void @llvm.lifetime.end.p0(i64 4, ptr %9) #7
  call void @llvm.lifetime.end.p0(i64 8, ptr %8) #7
  call void @llvm.lifetime.end.p0(i64 8, ptr %7) #7
  ret i32 -1
}

; Function Attrs: null_pointer_is_valid sspstrong uwtable
define internal i32 @dissect_extrememesh(ptr noundef %0, ptr noundef %1, ptr noundef %2, ptr noundef %3) #0 {
  %5 = alloca ptr, align 8
  %6 = alloca ptr, align 8
  %7 = alloca ptr, align 8
  %8 = alloca ptr, align 8
  %9 = alloca i32, align 4
  %10 = alloca ptr, align 8
  %11 = alloca ptr, align 8
  %12 = alloca ptr, align 8
  %13 = alloca i32, align 4
  store ptr %0, ptr %5, align 8
  store ptr %1, ptr %6, align 8
  store ptr %2, ptr %7, align 8
  store ptr %3, ptr %8, align 8
  call void @llvm.lifetime.start.p0(i64 4, ptr %9) #7
  store i32 0, ptr %9, align 4
  call void @llvm.lifetime.start.p0(i64 8, ptr %10) #7
  store ptr null, ptr %10, align 8
  %14 = load ptr, ptr %6, align 8
  %15 = getelementptr inbounds nuw %struct._packet_info, ptr %14, i32 0, i32 1
  %16 = load ptr, ptr %15, align 8
  call void @col_set_str(ptr noundef %16, i32 noundef 35, ptr noundef @.str.394)
  call void @llvm.lifetime.start.p0(i64 8, ptr %11) #7
  store ptr null, ptr %11, align 8
  call void @llvm.lifetime.start.p0(i64 8, ptr %12) #7
  store ptr null, ptr %12, align 8
  call void @llvm.lifetime.start.p0(i64 4, ptr %13) #7
  store i32 -1, ptr %13, align 4
  %17 = load ptr, ptr %7, align 8
  %18 = load i32, ptr @proto_extrememesh, align 4
  %19 = load ptr, ptr %5, align 8
  %20 = load i32, ptr %9, align 4
  %21 = call ptr @proto_tree_add_item(ptr noundef %17, i32 noundef %18, ptr noundef %19, i32 noundef %20, i32 noundef -1, i32 noundef 0)
  store ptr %21, ptr %11, align 8
  %22 = load ptr, ptr %11, align 8
  %23 = load i32, ptr @ett_extrememesh, align 4
  %24 = call ptr @proto_item_add_subtree(ptr noundef %22, i32 noundef %23)
  store ptr %24, ptr %12, align 8
  %25 = load ptr, ptr %12, align 8
  %26 = load i32, ptr @hf_extrememesh_version, align 4
  %27 = load ptr, ptr %5, align 8
  %28 = load i32, ptr %9, align 4
  %29 = call ptr @proto_tree_add_item(ptr noundef %25, i32 noundef %26, ptr noundef %27, i32 noundef %28, i32 noundef 1, i32 noundef 0)
  %30 = load i32, ptr %9, align 4
  %31 = add i32 %30, 1
  store i32 %31, ptr %9, align 4
  %32 = load ptr, ptr %5, align 8
  %33 = load i32, ptr %9, align 4
  %34 = call zeroext i8 @tvb_get_uint8(ptr noundef %32, i32 noundef %33)
  %35 = zext i8 %34 to i32
  store i32 %35, ptr %13, align 4
  %36 = load ptr, ptr %12, align 8
  %37 = load i32, ptr @hf_extrememesh_nextproto, align 4
  %38 = load ptr, ptr %5, align 8
  %39 = load i32, ptr %9, align 4
  %40 = call ptr @proto_tree_add_item(ptr noundef %36, i32 noundef %37, ptr noundef %38, i32 noundef %39, i32 noundef 1, i32 noundef 0)
  %41 = load i32, ptr %9, align 4
  %42 = add i32 %41, 1
  store i32 %42, ptr %9, align 4
  %43 = load ptr, ptr %5, align 8
  %44 = load i32, ptr %9, align 4
  %45 = call ptr @tvb_new_subset_length(ptr noundef %43, i32 noundef %44, i32 noundef -1)
  store ptr %45, ptr %10, align 8
  br label %46

46:                                               ; preds = %89, %4
  %47 = load i32, ptr %13, align 4
  %48 = icmp ne i32 %47, -1
  br i1 %48, label %49, label %90

49:                                               ; preds = %46
  %50 = load i32, ptr %13, align 4
  switch i32 %50, label %88 [
    i32 12, label %51
    i32 8, label %51
    i32 9, label %51
    i32 5, label %51
    i32 -1, label %51
    i32 0, label %52
    i32 1, label %53
    i32 2, label %58
    i32 3, label %68
    i32 4, label %73
    i32 6, label %73
    i32 7, label %73
    i32 10, label %73
    i32 11, label %73
    i32 13, label %73
    i32 14, label %78
    i32 15, label %83
  ]

51:                                               ; preds = %49, %49, %49, %49, %49
  store i32 -1, ptr %13, align 4
  br label %89

52:                                               ; preds = %49
  store i32 -1, ptr %13, align 4
  br label %89

53:                                               ; preds = %49
  %54 = load ptr, ptr %10, align 8
  %55 = load ptr, ptr %6, align 8
  %56 = load ptr, ptr %12, align 8
  %57 = call i32 @dissect_extrememesh_mch(ptr noundef %54, ptr noundef %55, ptr noundef %56)
  store i32 %57, ptr %13, align 4
  br label %89

58:                                               ; preds = %49
  %59 = load ptr, ptr @eth_withoutfcs_handle, align 8
  %60 = icmp ne ptr %59, null
  br i1 %60, label %61, label %67

61:                                               ; preds = %58
  %62 = load ptr, ptr @eth_withoutfcs_handle, align 8
  %63 = load ptr, ptr %10, align 8
  %64 = load ptr, ptr %6, align 8
  %65 = load ptr, ptr %12, align 8
  %66 = call i32 @call_dissector(ptr noundef %62, ptr noundef %63, ptr noundef %64, ptr noundef %65)
  br label %67

67:                                               ; preds = %61, %58
  store i32 -1, ptr %13, align 4
  br label %89

68:                                               ; preds = %49
  %69 = load ptr, ptr %10, align 8
  %70 = load ptr, ptr %6, align 8
  %71 = load ptr, ptr %12, align 8
  %72 = call i32 @dissect_extrememesh_ps(ptr noundef %69, ptr noundef %70, ptr noundef %71)
  store i32 %72, ptr %13, align 4
  br label %89

73:                                               ; preds = %49, %49, %49, %49, %49, %49
  %74 = load ptr, ptr %10, align 8
  %75 = load ptr, ptr %6, align 8
  %76 = load ptr, ptr %12, align 8
  %77 = call i32 @dissect_extrememesh_eth_noaddr(ptr noundef %74, ptr noundef %75, ptr noundef %76)
  store i32 %77, ptr %13, align 4
  br label %89

78:                                               ; preds = %49
  %79 = load ptr, ptr %10, align 8
  %80 = load ptr, ptr %6, align 8
  %81 = load ptr, ptr %12, align 8
  %82 = call i32 @dissect_extrememesh_l2upd(ptr noundef %79, ptr noundef %80, ptr noundef %81)
  store i32 %82, ptr %13, align 4
  br label %89

83:                                               ; preds = %49
  %84 = load ptr, ptr %10, align 8
  %85 = load ptr, ptr %6, align 8
  %86 = load ptr, ptr %12, align 8
  %87 = call i32 @dissect_extrememesh_probe(ptr noundef %84, ptr noundef %85, ptr noundef %86)
  store i32 %87, ptr %13, align 4
  br label %89

88:                                               ; preds = %49
  store i32 -1, ptr %13, align 4
  br label %89

89:                                               ; preds = %88, %83, %78, %73, %68, %67, %53, %52, %51
  br label %46, !llvm.loop !6

90:                                               ; preds = %46
  call void @llvm.lifetime.end.p0(i64 4, ptr %13) #7
  call void @llvm.lifetime.end.p0(i64 8, ptr %12) #7
  call void @llvm.lifetime.end.p0(i64 8, ptr %11) #7
  call void @llvm.lifetime.end.p0(i64 8, ptr %10) #7
  call void @llvm.lifetime.end.p0(i64 4, ptr %9) #7
  ret i32 0
}