; Function Attrs: null_pointer_is_valid sspstrong uwtable
define internal noundef i32 @dissect_extrememesh(ptr noundef %0, ptr noundef %1, ptr noundef %2, ptr readnone captures(none) %3) #0 {
  %5 = getelementptr inbounds nuw i8, ptr %1, i64 8
  %6 = load ptr, ptr %5, align 8
  tail call void @col_set_str(ptr noundef %6, i32 noundef 35, ptr noundef nonnull @.str.394)
  %7 = load i32, ptr @proto_extrememesh, align 4
  %8 = tail call ptr @proto_tree_add_item(ptr noundef %2, i32 noundef %7, ptr noundef %0, i32 noundef 0, i32 noundef -1, i32 noundef 0)
  %9 = load i32, ptr @ett_extrememesh, align 4
  %10 = tail call ptr @proto_item_add_subtree(ptr noundef %8, i32 noundef %9)
  %11 = load i32, ptr @hf_extrememesh_version, align 4
  %12 = tail call ptr @proto_tree_add_item(ptr noundef %10, i32 noundef %11, ptr noundef %0, i32 noundef 0, i32 noundef 1, i32 noundef 0)
  %13 = tail call zeroext i8 @tvb_get_uint8(ptr noundef %0, i32 noundef 1)
  %14 = zext i8 %13 to i32
  %15 = load i32, ptr @hf_extrememesh_nextproto, align 4
  %16 = tail call ptr @proto_tree_add_item(ptr noundef %10, i32 noundef %15, ptr noundef %0, i32 noundef 1, i32 noundef 1, i32 noundef 0)
  %17 = tail call ptr @tvb_new_subset_length(ptr noundef %0, i32 noundef 2, i32 noundef -1)
  %18 = getelementptr inbounds nuw i8, ptr %1, i64 216
  %19 = getelementptr inbounds nuw i8, ptr %1, i64 240
  %20 = getelementptr inbounds nuw i8, ptr %1, i64 212
  %21 = getelementptr inbounds nuw i8, ptr %1, i64 236
  %22 = getelementptr inbounds nuw i8, ptr %1, i64 408
  br label %dissect_extrememesh_eth_noaddr.exit

dissect_extrememesh_eth_noaddr.exit:              ; preds = %dissect_extrememesh_eth_noaddr.exit.backedge, %4
  %.0 = phi i32 [ %14, %4 ], [ -1, %dissect_extrememesh_eth_noaddr.exit.backedge ]
  switch i32 %.0, label %dissect_extrememesh_eth_noaddr.exit.backedge [
    i32 -1, label %73
    i32 14, label %63
    i32 13, label %29
    i32 11, label %29
    i32 10, label %29
    i32 15, label %72
    i32 7, label %29
    i32 1, label %23
    i32 2, label %24
    i32 3, label %28
    i32 4, label %29
    i32 6, label %29
  ]

23:                                               ; preds = %dissect_extrememesh_eth_noaddr.exit
  tail call fastcc void @dissect_extrememesh_mch(ptr noundef %17, ptr noundef %1, ptr noundef %10)
  br label %dissect_extrememesh_eth_noaddr.exit.backedge

24:                                               ; preds = %dissect_extrememesh_eth_noaddr.exit
  %25 = load ptr, ptr @eth_withoutfcs_handle, align 8
  %.not37 = icmp eq ptr %25, null
  br i1 %.not37, label %dissect_extrememesh_eth_noaddr.exit.backedge, label %26

26:                                               ; preds = %24
  %27 = tail call i32 @call_dissector(ptr noundef nonnull %25, ptr noundef %17, ptr noundef %1, ptr noundef %10)
  br label %dissect_extrememesh_eth_noaddr.exit.backedge

28:                                               ; preds = %dissect_extrememesh_eth_noaddr.exit
  tail call fastcc void @dissect_extrememesh_ps(ptr noundef %17, ptr noundef %1, ptr noundef %10)
  br label %dissect_extrememesh_eth_noaddr.exit.backedge

29:                                               ; preds = %dissect_extrememesh_eth_noaddr.exit, %dissect_extrememesh_eth_noaddr.exit, %dissect_extrememesh_eth_noaddr.exit, %dissect_extrememesh_eth_noaddr.exit, %dissect_extrememesh_eth_noaddr.exit, %dissect_extrememesh_eth_noaddr.exit
  %30 = load ptr, ptr %18, align 8
  %.not.i = icmp eq ptr %30, null
  br i1 %.not.i, label %dissect_extrememesh_eth_noaddr.exit.backedge, label %31

31:                                               ; preds = %29
  %32 = load ptr, ptr %19, align 8
  %.not29.i = icmp eq ptr %32, null
  br i1 %.not29.i, label %dissect_extrememesh_eth_noaddr.exit.backedge, label %33

33:                                               ; preds = %31
  %34 = tail call i32 @tvb_captured_length(ptr noundef %17)
  %35 = load i32, ptr %20, align 4
  %36 = add i32 %35, %34
  %37 = load i32, ptr %21, align 4
  %38 = add i32 %36, %37
  %39 = load ptr, ptr %22, align 8
  %40 = sext i32 %38 to i64
  %41 = tail call noalias ptr @wmem_alloc(ptr noundef %39, i64 noundef %40) #6
  %42 = load ptr, ptr %19, align 8
  %43 = load i32, ptr %21, align 4
  %44 = sext i32 %43 to i64
  %45 = icmp ne i32 %38, -1
  tail call void @llvm.assume(i1 %45)
  %46 = tail call ptr @__memcpy_chk(ptr noundef %41, ptr noundef %42, i64 noundef range(i64 -2147483648, 2147483648) %44, i64 noundef %40) #7, !alias.scope !6
  %47 = getelementptr i8, ptr %41, i64 %44
  %48 = load ptr, ptr %18, align 8
  %49 = load i32, ptr %20, align 4
  %50 = sext i32 %49 to i64
  %51 = sub nsw i64 %40, %44
  %52 = icmp ugt i32 %43, %38
  %53 = select i1 %52, i64 0, i64 %51
  %54 = icmp ne i64 %53, -1
  tail call void @llvm.assume(i1 %54)
  %55 = tail call ptr @__memcpy_chk(ptr noundef %47, ptr noundef %48, i64 noundef range(i64 -2147483648, 2147483648) %50, i64 noundef %53) #7, !alias.scope !10
  %56 = add i32 %49, %43
  %57 = zext i32 %34 to i64
  %58 = tail call ptr @tvb_memcpy(ptr noundef %17, ptr noundef %41, i32 noundef %56, i64 noundef %57)
  %59 = tail call ptr @tvb_new_real_data(ptr noundef %41, i32 noundef %38, i32 noundef %38)
  tail call void @tvb_set_child_real_data_tvbuff(ptr noundef %17, ptr noundef %59)
  tail call void @add_new_data_source(ptr noundef %1, ptr noundef %59, ptr noundef nonnull @.str.395)
  %60 = load ptr, ptr @eth_withoutfcs_handle, align 8
  %.not30.i = icmp eq ptr %60, null
  br i1 %.not30.i, label %dissect_extrememesh_eth_noaddr.exit.backedge, label %61

61:                                               ; preds = %33
  %62 = tail call i32 @call_dissector(ptr noundef nonnull %60, ptr noundef %59, ptr noundef %1, ptr noundef %10)
  br label %dissect_extrememesh_eth_noaddr.exit.backedge

dissect_extrememesh_eth_noaddr.exit.backedge:     ; preds = %61, %33, %31, %29, %dissect_extrememesh_eth_noaddr.exit, %24, %26, %72, %63, %28, %23
  br label %dissect_extrememesh_eth_noaddr.exit, !llvm.loop !14

63:                                               ; preds = %dissect_extrememesh_eth_noaddr.exit
  %.val = load ptr, ptr %5, align 8
  tail call void @col_set_str(ptr noundef %.val, i32 noundef 25, ptr noundef nonnull @.str.303)
  %64 = load i32, ptr @proto_extrememesh_l2upd, align 4
  %65 = tail call ptr @proto_tree_add_item(ptr noundef %10, i32 noundef %64, ptr noundef %17, i32 noundef 0, i32 noundef -1, i32 noundef 0)
  %66 = load i32, ptr @hf_extrememesh_l2upd_proxy_owner, align 4
  %67 = tail call ptr @proto_tree_add_item(ptr noundef %10, i32 noundef %66, ptr noundef %17, i32 noundef 0, i32 noundef 6, i32 noundef 0)
  %68 = load i32, ptr @hf_extrememesh_l2upd_ballast, align 4
  %69 = tail call i32 @tvb_captured_length(ptr noundef %17)
  %70 = add i32 %69, -6
  %71 = tail call ptr @proto_tree_add_item(ptr noundef %10, i32 noundef %68, ptr noundef %17, i32 noundef 6, i32 noundef %70, i32 noundef 0)
  br label %dissect_extrememesh_eth_noaddr.exit.backedge

72:                                               ; preds = %dissect_extrememesh_eth_noaddr.exit
  %.val38 = load ptr, ptr %5, align 8
  tail call fastcc void @dissect_extrememesh_probe(ptr noundef %17, ptr %.val38, ptr noundef %10)
  br label %dissect_extrememesh_eth_noaddr.exit.backedge

73:                                               ; preds = %dissect_extrememesh_eth_noaddr.exit
  ret i32 0
}